target datalayout = "e-m:e-p270:32:32-p271:32:32-p272:64:64-i64:64-i128:128-f80:128-n8:16:32:64-S128"
target triple = "x86_64-pc-linux-gnu"

%struct.SwrContext = type { ptr, i32, ptr, i32, i32, i32, %struct.AVChannelLayout, %struct.AVChannelLayout, %struct.AVChannelLayout, i32, i32, i32, float, float, float, float, float, i32, ptr, i32, %struct.AVChannelLayout, %struct.AVChannelLayout, %struct.AVChannelLayout, i32, i32, %struct.DitherContext, i32, i32, i32, i32, double, i32, double, double, i32, float, float, float, float, float, i64, i32, i32, i32, %struct.AudioData, %struct.AudioData, %struct.AudioData, %struct.AudioData, %struct.AudioData, %struct.AudioData, %struct.AudioData, %struct.AudioData, i32, i32, i32, i32, i64, i64, i32, double, ptr, ptr, ptr, ptr, ptr, [64 x [64 x double]], [64 x [64 x float]], ptr, ptr, ptr, ptr, [64 x [64 x i32]], [64 x [65 x i8]], ptr, ptr, ptr, ptr, ptr }
%struct.AVChannelLayout = type { i32, i32, %union.anon, ptr }
%union.anon = type { i64 }
%struct.DitherContext = type { i32, i32, float, float, i32, float, float, i32, [20 x float], [64 x [40 x float]], %struct.AudioData, %struct.AudioData, i32 }
%struct.AudioData = type { [64 x ptr], ptr, i32, i32, i32, i32, i32 }

@.str = private unnamed_addr constant [30 x i8] c"Assertion %s failed at %s:%d\0A\00", align 1
@.str.1 = private unnamed_addr constant [33 x i8] c"s->dither.method < SWR_DITHER_NB\00", align 1
@.str.2 = private unnamed_addr constant [23 x i8] c"libswresample/dither.c\00", align 1
@.str.3 = private unnamed_addr constant [2 x i8] c"0\00", align 1

; Function Attrs: nounwind uwtable
define i32 @swri_get_dither(ptr noundef %0, ptr noundef %1, i32 noundef %2, i32 noundef %3, i32 noundef %4) #0 {
  %6 = alloca i32, align 4
  %7 = alloca ptr, align 8
  %8 = alloca ptr, align 8
  %9 = alloca i32, align 4
  %10 = alloca i32, align 4
  %11 = alloca i32, align 4
  %12 = alloca double, align 8
  %13 = alloca ptr, align 8
  %14 = alloca i32, align 4
  %15 = alloca i32, align 4
  %16 = alloca double, align 8
  %17 = alloca double, align 8
  store ptr %0, ptr %7, align 8, !tbaa !4
  store ptr %1, ptr %8, align 8, !tbaa !9
  store i32 %2, ptr %9, align 4, !tbaa !10
  store i32 %3, ptr %10, align 4, !tbaa !10
  store i32 %4, ptr %11, align 4, !tbaa !10
  call void @llvm.lifetime.start.p0(i64 8, ptr %12) #7
  %18 = load ptr, ptr %7, align 8, !tbaa !4
  %19 = getelementptr inbounds nuw %struct.SwrContext, ptr %18, i32 0, i32 25
  %20 = getelementptr inbounds nuw %struct.DitherContext, ptr %19, i32 0, i32 3
  %21 = load float, ptr %20, align 4, !tbaa !12
  %22 = fpext nsz float %21 to double
  store double %22, ptr %12, align 8, !tbaa !26
  call void @llvm.lifetime.start.p0(i64 8, ptr %13) #7
  %23 = load i32, ptr %9, align 4, !tbaa !10
  %24 = add nsw i32 %23, 2
  %25 = sext i32 %24 to i64
  %26 = call ptr @av_malloc_array(i64 noundef %25, i64 noundef 8)
  store ptr %26, ptr %13, align 8, !tbaa !27
  call void @llvm.lifetime.start.p0(i64 4, ptr %14) #7
  %27 = load ptr, ptr %13, align 8, !tbaa !27
  %28 = icmp ne ptr %27, null
  br i1 %28, label %30, label %29

29:                                               ; preds = %5
  store i32 -12, ptr %6, align 4
  store i32 1, ptr %15, align 4
  br label %171

30:                                               ; preds = %5
  store i32 0, ptr %14, align 4, !tbaa !10
  br label %31

31:                                               ; preds = %77, %30
  %32 = load i32, ptr %14, align 4, !tbaa !10
  %33 = load i32, ptr %9, align 4, !tbaa !10
  %34 = add nsw i32 %33, 2
  %35 = icmp slt i32 %32, %34
  br i1 %35, label %36, label %80

36:                                               ; preds = %31
  call void @llvm.lifetime.start.p0(i64 8, ptr %16) #7
  %37 = load i32, ptr %10, align 4, !tbaa !10
  %38 = mul i32 %37, 1664525
  %39 = add i32 %38, 1013904223
  store i32 %39, ptr %10, align 4, !tbaa !10
  %40 = load ptr, ptr %7, align 8, !tbaa !4
  %41 = getelementptr inbounds nuw %struct.SwrContext, ptr %40, i32 0, i32 25
  %42 = getelementptr inbounds nuw %struct.DitherContext, ptr %41, i32 0, i32 0
  %43 = load i32, ptr %42, align 8, !tbaa !29
  switch i32 %43, label %49 [
    i32 1, label %44
  ]

44:                                               ; preds = %36
  %45 = load i32, ptr %10, align 4, !tbaa !10
  %46 = uitofp i32 %45 to double
  %47 = fdiv nsz double %46, 0x41EFFFFFFFE00000
  %48 = fsub nsz double %47, 5.000000e-01
  store double %48, ptr %16, align 8, !tbaa !26
  br label %71

49:                                               ; preds = %36
  br label %50

50:                                               ; preds = %49
  %51 = load ptr, ptr %7, align 8, !tbaa !4
  %52 = getelementptr inbounds nuw %struct.SwrContext, ptr %51, i32 0, i32 25
  %53 = getelementptr inbounds nuw %struct.DitherContext, ptr %52, i32 0, i32 0
  %54 = load i32, ptr %53, align 8, !tbaa !29
  %55 = icmp slt i32 %54, 72
  br i1 %55, label %57, label %56

56:                                               ; preds = %50
  call void (ptr, i32, ptr, ...) @av_log(ptr noundef null, i32 noundef 0, ptr noundef @.str, ptr noundef @.str.1, ptr noundef @.str.2, i32 noundef 43)
  call void @abort() #8
  unreachable

57:                                               ; preds = %50
  br label %58

58:                                               ; preds = %57
  br label %59

59:                                               ; preds = %58
  %60 = load i32, ptr %10, align 4, !tbaa !10
  %61 = uitofp i32 %60 to double
  %62 = fdiv nsz double %61, 0x41EFFFFFFFE00000
  store double %62, ptr %16, align 8, !tbaa !26
  %63 = load i32, ptr %10, align 4, !tbaa !10
  %64 = mul i32 %63, 1664525
  %65 = add i32 %64, 1013904223
  store i32 %65, ptr %10, align 4, !tbaa !10
  %66 = load i32, ptr %10, align 4, !tbaa !10
  %67 = uitofp i32 %66 to double
  %68 = fdiv nsz double %67, 0x41EFFFFFFFE00000
  %69 = load double, ptr %16, align 8, !tbaa !26
  %70 = fsub nsz double %69, %68
  store double %70, ptr %16, align 8, !tbaa !26
  br label %71

71:                                               ; preds = %59, %44
  %72 = load double, ptr %16, align 8, !tbaa !26
  %73 = load ptr, ptr %13, align 8, !tbaa !27
  %74 = load i32, ptr %14, align 4, !tbaa !10
  %75 = sext i32 %74 to i64
  %76 = getelementptr inbounds double, ptr %73, i64 %75
  store double %72, ptr %76, align 8, !tbaa !26
  call void @llvm.lifetime.end.p0(i64 8, ptr %16) #7
  br label %77

77:                                               ; preds = %71
  %78 = load i32, ptr %14, align 4, !tbaa !10
  %79 = add nsw i32 %78, 1
  store i32 %79, ptr %14, align 4, !tbaa !10
  br label %31, !llvm.loop !30

80:                                               ; preds = %31
  store i32 0, ptr %14, align 4, !tbaa !10
  br label %81

81:                                               ; preds = %166, %80
  %82 = load i32, ptr %14, align 4, !tbaa !10
  %83 = load i32, ptr %9, align 4, !tbaa !10
  %84 = icmp slt i32 %82, %83
  br i1 %84, label %85, label %169

85:                                               ; preds = %81
  call void @llvm.lifetime.start.p0(i64 8, ptr %17) #7
  %86 = load ptr, ptr %7, align 8, !tbaa !4
  %87 = getelementptr inbounds nuw %struct.SwrContext, ptr %86, i32 0, i32 25
  %88 = getelementptr inbounds nuw %struct.DitherContext, ptr %87, i32 0, i32 0
  %89 = load i32, ptr %88, align 8, !tbaa !29
  switch i32 %89, label %90 [
    i32 3, label %106
  ]

90:                                               ; preds = %85
  br label %91

91:                                               ; preds = %90
  %92 = load ptr, ptr %7, align 8, !tbaa !4
  %93 = getelementptr inbounds nuw %struct.SwrContext, ptr %92, i32 0, i32 25
  %94 = getelementptr inbounds nuw %struct.DitherContext, ptr %93, i32 0, i32 0
  %95 = load i32, ptr %94, align 8, !tbaa !29
  %96 = icmp slt i32 %95, 72
  br i1 %96, label %98, label %97

97:                                               ; preds = %91
  call void (ptr, i32, ptr, ...) @av_log(ptr noundef null, i32 noundef 0, ptr noundef @.str, ptr noundef @.str.1, ptr noundef @.str.2, i32 noundef 57)
  call void @abort() #8
  unreachable

98:                                               ; preds = %91
  br label %99

99:                                               ; preds = %98
  br label %100

100:                                              ; preds = %99
  %101 = load ptr, ptr %13, align 8, !tbaa !27
  %102 = load i32, ptr %14, align 4, !tbaa !10
  %103 = sext i32 %102 to i64
  %104 = getelementptr inbounds double, ptr %101, i64 %103
  %105 = load double, ptr %104, align 8, !tbaa !26
  store double %105, ptr %17, align 8, !tbaa !26
  br label %129

106:                                              ; preds = %85
  %107 = load ptr, ptr %13, align 8, !tbaa !27
  %108 = load i32, ptr %14, align 4, !tbaa !10
  %109 = sext i32 %108 to i64
  %110 = getelementptr inbounds double, ptr %107, i64 %109
  %111 = load double, ptr %110, align 8, !tbaa !26
  %112 = fneg nsz double %111
  %113 = load ptr, ptr %13, align 8, !tbaa !27
  %114 = load i32, ptr %14, align 4, !tbaa !10
  %115 = add nsw i32 %114, 1
  %116 = sext i32 %115 to i64
  %117 = getelementptr inbounds double, ptr %113, i64 %116
  %118 = load double, ptr %117, align 8, !tbaa !26
  %119 = call nsz double @llvm.fmuladd.f64(double 2.000000e+00, double %118, double %112)
  %120 = load ptr, ptr %13, align 8, !tbaa !27
  %121 = load i32, ptr %14, align 4, !tbaa !10
  %122 = add nsw i32 %121, 2
  %123 = sext i32 %122 to i64
  %124 = getelementptr inbounds double, ptr %120, i64 %123
  %125 = load double, ptr %124, align 8, !tbaa !26
  %126 = fsub nsz double %119, %125
  %127 = call nsz double @llvm.sqrt.f64(double 6.000000e+00)
  %128 = fdiv nsz double %126, %127
  store double %128, ptr %17, align 8, !tbaa !26
  br label %129

129:                                              ; preds = %106, %100
  %130 = load double, ptr %12, align 8, !tbaa !26
  %131 = load double, ptr %17, align 8, !tbaa !26
  %132 = fmul nsz double %131, %130
  store double %132, ptr %17, align 8, !tbaa !26
  %133 = load i32, ptr %11, align 4, !tbaa !10
  switch i32 %133, label %161 [
    i32 6, label %134
    i32 7, label %141
    i32 8, label %148
    i32 9, label %155
  ]

134:                                              ; preds = %129
  %135 = load double, ptr %17, align 8, !tbaa !26
  %136 = fptosi double %135 to i16
  %137 = load ptr, ptr %8, align 8, !tbaa !9
  %138 = load i32, ptr %14, align 4, !tbaa !10
  %139 = sext i32 %138 to i64
  %140 = getelementptr inbounds i16, ptr %137, i64 %139
  store i16 %136, ptr %140, align 2, !tbaa !32
  br label %165

141:                                              ; preds = %129
  %142 = load double, ptr %17, align 8, !tbaa !26
  %143 = fptosi double %142 to i32
  %144 = load ptr, ptr %8, align 8, !tbaa !9
  %145 = load i32, ptr %14, align 4, !tbaa !10
  %146 = sext i32 %145 to i64
  %147 = getelementptr inbounds i32, ptr %144, i64 %146
  store i32 %143, ptr %147, align 4, !tbaa !10
  br label %165

148:                                              ; preds = %129
  %149 = load double, ptr %17, align 8, !tbaa !26
  %150 = fptrunc nsz double %149 to float
  %151 = load ptr, ptr %8, align 8, !tbaa !9
  %152 = load i32, ptr %14, align 4, !tbaa !10
  %153 = sext i32 %152 to i64
  %154 = getelementptr inbounds float, ptr %151, i64 %153
  store float %150, ptr %154, align 4, !tbaa !34
  br label %165

155:                                              ; preds = %129
  %156 = load double, ptr %17, align 8, !tbaa !26
  %157 = load ptr, ptr %8, align 8, !tbaa !9
  %158 = load i32, ptr %14, align 4, !tbaa !10
  %159 = sext i32 %158 to i64
  %160 = getelementptr inbounds double, ptr %157, i64 %159
  store double %156, ptr %160, align 8, !tbaa !26
  br label %165

161:                                              ; preds = %129
  br label %162

162:                                              ; preds = %161
  call void (ptr, i32, ptr, ...) @av_log(ptr noundef null, i32 noundef 0, ptr noundef @.str, ptr noundef @.str.3, ptr noundef @.str.2, i32 noundef 72)
  call void @abort() #8
  unreachable

163:                                              ; No predecessors!
  br label %164

164:                                              ; preds = %163
  br label %165

165:                                              ; preds = %164, %155, %148, %141, %134
  call void @llvm.lifetime.end.p0(i64 8, ptr %17) #7
  br label %166

166:                                              ; preds = %165
  %167 = load i32, ptr %14, align 4, !tbaa !10
  %168 = add nsw i32 %167, 1
  store i32 %168, ptr %14, align 4, !tbaa !10
  br label %81, !llvm.loop !35

169:                                              ; preds = %81
  %170 = load ptr, ptr %13, align 8, !tbaa !27
  call void @av_free(ptr noundef %170)
  store i32 0, ptr %6, align 4
  store i32 1, ptr %15, align 4
  br label %171

171:                                              ; preds = %169, %29
  call void @llvm.lifetime.end.p0(i64 4, ptr %14) #7
  call void @llvm.lifetime.end.p0(i64 8, ptr %13) #7
  call void @llvm.lifetime.end.p0(i64 8, ptr %12) #7
  %172 = load i32, ptr %6, align 4
  ret i32 %172
}