; Function Attrs: nounwind uwtable
define range(i32 -12, 1) i32 @swri_get_dither(ptr noundef readonly captures(none) %0, ptr noundef writeonly captures(none) %1, i32 noundef %2, i32 noundef %3, i32 noundef %4) local_unnamed_addr #0 {
  %6 = getelementptr inbounds nuw i8, ptr %0, i64 248
  %7 = getelementptr inbounds nuw i8, ptr %0, i64 260
  %8 = load float, ptr %7, align 4, !tbaa !4
  %9 = fpext nsz float %8 to double
  %10 = add nsw i32 %2, 2
  %11 = sext i32 %10 to i64
  %12 = tail call ptr @av_malloc_array(i64 noundef %11, i64 noundef 8) #8
  %.not = icmp eq ptr %12, null
  br i1 %.not, label %67, label %.preheader55

.preheader55:                                     ; preds = %5
  %13 = icmp sgt i32 %2, -2
  br i1 %13, label %.lr.ph, label %._crit_edge

.lr.ph:                                           ; preds = %.preheader55
  %14 = load i32, ptr %6, align 8, !tbaa !22
  %cond1 = icmp eq i32 %14, 1
  br i1 %cond1, label %.lr.ph.split.us.preheader, label %.lr.ph.split

.lr.ph.split.us.preheader:                        ; preds = %.lr.ph
  %wide.trip.count65 = zext nneg i32 %10 to i64
  br label %.lr.ph.split.us

.lr.ph.split.us:                                  ; preds = %.lr.ph.split.us.preheader, %.lr.ph.split.us
  %indvars.iv62 = phi i64 [ 0, %.lr.ph.split.us.preheader ], [ %indvars.iv.next63, %.lr.ph.split.us ]
  %.05056.us = phi i32 [ %3, %.lr.ph.split.us.preheader ], [ %16, %.lr.ph.split.us ]
  %15 = mul i32 %.05056.us, 1664525
  %16 = add i32 %15, 1013904223
  %17 = uitofp i32 %16 to double
  %18 = fdiv nsz double %17, 0x41EFFFFFFFE00000
  %19 = fadd nsz double %18, -5.000000e-01
  %20 = getelementptr inbounds nuw double, ptr %12, i64 %indvars.iv62
  store double %19, ptr %20, align 8, !tbaa !23
  %indvars.iv.next63 = add nuw nsw i64 %indvars.iv62, 1
  %exitcond66.not = icmp eq i64 %indvars.iv.next63, %wide.trip.count65
  br i1 %exitcond66.not, label %.preheader, label %.lr.ph.split.us, !llvm.loop !24

.lr.ph.split:                                     ; preds = %.lr.ph
  %21 = icmp slt i32 %14, 72
  br i1 %21, label %.lr.ph.split.split.preheader, label %33

.lr.ph.split.split.preheader:                     ; preds = %.lr.ph.split
  %wide.trip.count = zext nneg i32 %10 to i64
  br label %.lr.ph.split.split

.preheader:                                       ; preds = %.lr.ph.split.split, %.lr.ph.split.us
  %22 = icmp sgt i32 %2, 0
  br i1 %22, label %.lr.ph59.preheader, label %._crit_edge

.lr.ph59.preheader:                               ; preds = %.preheader
  %wide.trip.count70 = zext nneg i32 %2 to i64
  br label %.lr.ph59

.lr.ph.split.split:                               ; preds = %.lr.ph.split.split.preheader, %.lr.ph.split.split
  %indvars.iv = phi i64 [ 0, %.lr.ph.split.split.preheader ], [ %indvars.iv.next, %.lr.ph.split.split ]
  %.05056 = phi i32 [ %3, %.lr.ph.split.split.preheader ], [ %28, %.lr.ph.split.split ]
  %23 = mul i32 %.05056, 1664525
  %24 = add i32 %23, 1013904223
  %25 = uitofp i32 %24 to double
  %26 = fdiv nsz double %25, 0x41EFFFFFFFE00000
  %27 = mul i32 %24, 1664525
  %28 = add i32 %27, 1013904223
  %29 = uitofp i32 %28 to double
  %30 = fdiv nsz double %29, 0x41EFFFFFFFE00000
  %31 = fsub nsz double %26, %30
  %32 = getelementptr inbounds nuw double, ptr %12, i64 %indvars.iv
  store double %31, ptr %32, align 8, !tbaa !23
  %indvars.iv.next = add nuw nsw i64 %indvars.iv, 1
  %exitcond.not = icmp eq i64 %indvars.iv.next, %wide.trip.count
  br i1 %exitcond.not, label %.preheader, label %.lr.ph.split.split, !llvm.loop !24

33:                                               ; preds = %.lr.ph.split
  tail call void (ptr, i32, ptr, ...) @av_log(ptr noundef null, i32 noundef 0, ptr noundef nonnull @.str, ptr noundef nonnull @.str.1, ptr noundef nonnull @.str.2, i32 noundef 43) #8
  tail call void @abort() #9
  unreachable

.lr.ph59:                                         ; preds = %.lr.ph59.preheader, %66
  %indvars.iv67 = phi i64 [ 0, %.lr.ph59.preheader ], [ %indvars.iv.next68, %66 ]
  %34 = load i32, ptr %6, align 8, !tbaa !22
  %cond = icmp eq i32 %34, 3
  br i1 %cond, label %41, label %35

35:                                               ; preds = %.lr.ph59
  %36 = icmp slt i32 %34, 72
  br i1 %36, label %38, label %37

37:                                               ; preds = %35
  tail call void (ptr, i32, ptr, ...) @av_log(ptr noundef null, i32 noundef 0, ptr noundef nonnull @.str, ptr noundef nonnull @.str.1, ptr noundef nonnull @.str.2, i32 noundef 57) #8
  tail call void @abort() #9
  unreachable

38:                                               ; preds = %35
  %39 = getelementptr inbounds nuw double, ptr %12, i64 %indvars.iv67
  %40 = load double, ptr %39, align 8, !tbaa !23
  br label %52

41:                                               ; preds = %.lr.ph59
  %42 = getelementptr inbounds nuw double, ptr %12, i64 %indvars.iv67
  %43 = load double, ptr %42, align 8, !tbaa !23
  %44 = fneg nsz double %43
  %45 = getelementptr inbounds nuw i8, ptr %42, i64 8
  %46 = load double, ptr %45, align 8, !tbaa !23
  %47 = tail call nsz double @llvm.fmuladd.f64(double %46, double 2.000000e+00, double %44)
  %48 = getelementptr inbounds nuw i8, ptr %42, i64 16
  %49 = load double, ptr %48, align 8, !tbaa !23
  %50 = fsub nsz double %47, %49
  %51 = fdiv nsz double %50, 0x4003988E1409212E
  br label %52

52:                                               ; preds = %41, %38
  %.0 = phi nsz double [ %51, %41 ], [ %40, %38 ]
  %53 = fmul nsz double %.0, %9
  switch i32 %4, label %65 [
    i32 6, label %54
    i32 7, label %57
    i32 8, label %60
    i32 9, label %63
  ]

54:                                               ; preds = %52
  %55 = fptosi double %53 to i16
  %56 = getelementptr inbounds nuw i16, ptr %1, i64 %indvars.iv67
  store i16 %55, ptr %56, align 2, !tbaa !26
  br label %66

57:                                               ; preds = %52
  %58 = fptosi double %53 to i32
  %59 = getelementptr inbounds nuw i32, ptr %1, i64 %indvars.iv67
  store i32 %58, ptr %59, align 4, !tbaa !28
  br label %66

60:                                               ; preds = %52
  %61 = fptrunc nsz double %53 to float
  %62 = getelementptr inbounds nuw float, ptr %1, i64 %indvars.iv67
  store float %61, ptr %62, align 4, !tbaa !29
  br label %66

63:                                               ; preds = %52
  %64 = getelementptr inbounds nuw double, ptr %1, i64 %indvars.iv67
  store double %53, ptr %64, align 8, !tbaa !23
  br label %66

65:                                               ; preds = %52
  tail call void (ptr, i32, ptr, ...) @av_log(ptr noundef null, i32 noundef 0, ptr noundef nonnull @.str, ptr noundef nonnull @.str.3, ptr noundef nonnull @.str.2, i32 noundef 72) #8
  tail call void @abort() #9
  unreachable

66:                                               ; preds = %63, %60, %57, %54
  %indvars.iv.next68 = add nuw nsw i64 %indvars.iv67, 1
  %exitcond71.not = icmp eq i64 %indvars.iv.next68, %wide.trip.count70
  br i1 %exitcond71.not, label %._crit_edge, label %.lr.ph59, !llvm.loop !30

._crit_edge:                                      ; preds = %66, %.preheader55, %.preheader
  tail call void @av_free(ptr noundef nonnull %12) #8
  br label %67

67:                                               ; preds = %5, %._crit_edge
  %.049 = phi i32 [ 0, %._crit_edge ], [ -12, %5 ]
  ret i32 %.049
}